; Function Attrs: mustprogress nounwind uwtable
define hidden noundef zeroext i1 @_ZN6hermes6parser7JSLexer5errorEN4llvh5SMLocENS2_7SMRangeERKNS2_5TwineE(ptr noundef nonnull align 8 captures(none) dereferenceable(1128) %this, ptr %loc.coerce, ptr %range.coerce0, ptr %range.coerce1, ptr noundef nonnull align 8 dereferenceable(18) %msg) local_unnamed_addr #1 align 2 {
entry:
  %0 = load ptr, ptr %this, align 8
  tail call void @_ZN6hermes18SourceErrorManager7messageENS0_8DiagKindEN4llvh5SMLocENS2_7SMRangeERKNS2_5TwineENS_9SubsystemE(ptr noundef nonnull align 8 dereferenceable(464) %0, i32 noundef 0, ptr %loc.coerce, ptr %range.coerce0, ptr %range.coerce1, ptr noundef nonnull align 8 dereferenceable(18) %msg, i32 noundef 1) #20
  %1 = load ptr, ptr %this, align 8
  %errorLimitReached_.i = getelementptr inbounds nuw i8, ptr %1, i64 316
  %2 = load i8, ptr %errorLimitReached_.i, align 4
  %tobool.i = trunc i8 %2 to i1
  br i1 %tobool.i, label %if.end, label %return

if.end:                                           ; preds = %entry
  %bufferEnd_.i = getelementptr inbounds nuw i8, ptr %this, i64 152
  %3 = load ptr, ptr %bufferEnd_.i, align 8
  %curCharPtr_.i = getelementptr inbounds nuw i8, ptr %this, i64 144
  store ptr %3, ptr %curCharPtr_.i, align 8
  br label %return

return:                                           ; preds = %entry, %if.end
  %retval.0 = xor i1 %tobool.i, true
  ret i1 %retval.0
}